; Function Attrs: mustprogress nounwind uwtable
define hidden void @_ZN14JfrJavaSupport5abortEPKcb(ptr noundef %0, i1 noundef zeroext %1) local_unnamed_addr #0 align 2 {
  %.not = icmp eq ptr %0, null
  br i1 %.not, label %6, label %3

3:                                                ; preds = %2
  %4 = load volatile ptr, ptr getelementptr inbounds (i8, ptr @_ZN16LogTagSetMappingILN6LogTag4typeE64ELS1_156ELS1_0ELS1_0ELS1_0ELS1_0EE7_tagsetE, i64 80), align 8
  %.not2 = icmp eq ptr %4, null
  br i1 %.not2, label %6, label %5

5:                                                ; preds = %3
  tail call void (ptr, ...) @_ZN7LogImplILN6LogTag4typeE64ELS1_156ELS1_0ELS1_0ELS1_0ELS1_0EE5writeILN8LogLevel4typeE5EEEvPKcz(ptr noundef nonnull @.str.12, ptr noundef nonnull %0)
  br label %6

6:                                                ; preds = %5, %3, %2
  %7 = load volatile ptr, ptr getelementptr inbounds (i8, ptr @_ZN16LogTagSetMappingILN6LogTag4typeE64ELS1_156ELS1_0ELS1_0ELS1_0ELS1_0EE7_tagsetE, i64 80), align 8
  %.not3 = icmp eq ptr %7, null
  br i1 %.not3, label %9, label %8

8:                                                ; preds = %6
  tail call void (ptr, ...) @_ZN7LogImplILN6LogTag4typeE64ELS1_156ELS1_0ELS1_0ELS1_0ELS1_0EE5writeILN8LogLevel4typeE5EEEvPKcz(ptr noundef nonnull @.str.12, ptr noundef nonnull @.str.13)
  br label %9

9:                                                ; preds = %6, %8
  tail call void @_Z8vm_abortb(i1 noundef zeroext %1) #13
  ret void
}